target datalayout = "e-m:e-p270:32:32-p271:32:32-p272:64:64-i64:64-i128:128-f80:128-n8:16:32:64-S128"
target triple = "x86_64-pc-linux-gnu"

%struct.tm = type { i32, i32, i32, i32, i32, i32, i32, i32, i32, i64, ptr }

; Function Attrs: nounwind uwtable
define internal i64 @DSTcorrect(i64 noundef %0, i64 noundef %1) #0 {
  %3 = alloca i64, align 8
  %4 = alloca i64, align 8
  %5 = alloca i64, align 8
  %6 = alloca i64, align 8
  %7 = alloca ptr, align 8
  %8 = alloca %struct.tm, align 8
  store i64 %0, ptr %3, align 8, !tbaa !4
  store i64 %1, ptr %4, align 8, !tbaa !4
  call void @llvm.lifetime.start.p0(i64 8, ptr %5) #7
  call void @llvm.lifetime.start.p0(i64 8, ptr %6) #7
  call void @llvm.lifetime.start.p0(i64 8, ptr %7) #7
  call void @llvm.lifetime.start.p0(i64 56, ptr %8) #7
  %9 = call ptr @localtime_r(ptr noundef %3, ptr noundef %8) #7
  store ptr %9, ptr %7, align 8, !tbaa !13
  %10 = load ptr, ptr %7, align 8, !tbaa !13
  %11 = getelementptr inbounds nuw %struct.tm, ptr %10, i32 0, i32 2
  %12 = load i32, ptr %11, align 8, !tbaa !47
  %13 = add nsw i32 %12, 1
  %14 = srem i32 %13, 24
  %15 = sext i32 %14 to i64
  store i64 %15, ptr %5, align 8, !tbaa !4
  %16 = call ptr @localtime_r(ptr noundef %4, ptr noundef %8) #7
  store ptr %16, ptr %7, align 8, !tbaa !13
  %17 = load ptr, ptr %7, align 8, !tbaa !13
  %18 = getelementptr inbounds nuw %struct.tm, ptr %17, i32 0, i32 2
  %19 = load i32, ptr %18, align 8, !tbaa !47
  %20 = add nsw i32 %19, 1
  %21 = srem i32 %20, 24
  %22 = sext i32 %21 to i64
  store i64 %22, ptr %6, align 8, !tbaa !4
  %23 = load i64, ptr %4, align 8, !tbaa !4
  %24 = load i64, ptr %3, align 8, !tbaa !4
  %25 = sub nsw i64 %23, %24
  %26 = load i64, ptr %5, align 8, !tbaa !4
  %27 = load i64, ptr %6, align 8, !tbaa !4
  %28 = sub nsw i64 %26, %27
  %29 = mul nsw i64 %28, 3600
  %30 = add nsw i64 %25, %29
  call void @llvm.lifetime.end.p0(i64 56, ptr %8) #7
  call void @llvm.lifetime.end.p0(i64 8, ptr %7) #7
  call void @llvm.lifetime.end.p0(i64 8, ptr %6) #7
  call void @llvm.lifetime.end.p0(i64 8, ptr %5) #7
  ret i64 %30
}

; Function Attrs: nounwind uwtable
define internal i64 @RelativeDate(i64 noundef %0, i64 noundef %1, i32 noundef %2, i64 noundef %3, i64 noundef %4) #0 {
  %6 = alloca i64, align 8
  %7 = alloca i64, align 8
  %8 = alloca i64, align 8
  %9 = alloca i32, align 4
  %10 = alloca i64, align 8
  %11 = alloca i64, align 8
  %12 = alloca ptr, align 8
  %13 = alloca i64, align 8
  %14 = alloca i64, align 8
  %15 = alloca %struct.tm, align 8
  %16 = alloca i32, align 4
  store i64 %0, ptr %7, align 8, !tbaa !4
  store i64 %1, ptr %8, align 8, !tbaa !4
  store i32 %2, ptr %9, align 4, !tbaa !31
  store i64 %3, ptr %10, align 8, !tbaa !4
  store i64 %4, ptr %11, align 8, !tbaa !4
  call void @llvm.lifetime.start.p0(i64 8, ptr %12) #7
  call void @llvm.lifetime.start.p0(i64 8, ptr %13) #7
  call void @llvm.lifetime.start.p0(i64 8, ptr %14) #7
  call void @llvm.lifetime.start.p0(i64 56, ptr %15) #7
  %17 = load i64, ptr %7, align 8, !tbaa !4
  %18 = load i64, ptr %8, align 8, !tbaa !4
  %19 = sub nsw i64 %17, %18
  store i64 %19, ptr %13, align 8, !tbaa !4
  %20 = call ptr @gmtime_r(ptr noundef %13, ptr noundef %15) #7
  store ptr %20, ptr %12, align 8, !tbaa !13
  %21 = load i64, ptr %7, align 8, !tbaa !4
  store i64 %21, ptr %14, align 8, !tbaa !4
  %22 = load i64, ptr %11, align 8, !tbaa !4
  %23 = load ptr, ptr %12, align 8, !tbaa !13
  %24 = getelementptr inbounds nuw %struct.tm, ptr %23, i32 0, i32 6
  %25 = load i32, ptr %24, align 8, !tbaa !81
  %26 = sext i32 %25 to i64
  %27 = sub nsw i64 %22, %26
  %28 = add nsw i64 %27, 7
  %29 = srem i64 %28, 7
  %30 = mul nsw i64 86400, %29
  %31 = load i64, ptr %14, align 8, !tbaa !4
  %32 = add nsw i64 %31, %30
  store i64 %32, ptr %14, align 8, !tbaa !4
  %33 = load i64, ptr %10, align 8, !tbaa !4
  %34 = icmp sle i64 %33, 0
  br i1 %34, label %35, label %37

35:                                               ; preds = %5
  %36 = load i64, ptr %10, align 8, !tbaa !4
  br label %40

37:                                               ; preds = %5
  %38 = load i64, ptr %10, align 8, !tbaa !4
  %39 = sub nsw i64 %38, 1
  br label %40

40:                                               ; preds = %37, %35
  %41 = phi i64 [ %36, %35 ], [ %39, %37 ]
  %42 = mul nsw i64 604800, %41
  %43 = load i64, ptr %14, align 8, !tbaa !4
  %44 = add nsw i64 %43, %42
  store i64 %44, ptr %14, align 8, !tbaa !4
  %45 = load i32, ptr %9, align 4, !tbaa !31
  %46 = icmp eq i32 %45, 2
  br i1 %46, label %47, label %51

47:                                               ; preds = %40
  %48 = load i64, ptr %7, align 8, !tbaa !4
  %49 = load i64, ptr %14, align 8, !tbaa !4
  %50 = call i64 @DSTcorrect(i64 noundef %48, i64 noundef %49)
  store i64 %50, ptr %6, align 8
  store i32 1, ptr %16, align 4
  br label %55

51:                                               ; preds = %40
  %52 = load i64, ptr %14, align 8, !tbaa !4
  %53 = load i64, ptr %7, align 8, !tbaa !4
  %54 = sub nsw i64 %52, %53
  store i64 %54, ptr %6, align 8
  store i32 1, ptr %16, align 4
  br label %55

55:                                               ; preds = %51, %47
  call void @llvm.lifetime.end.p0(i64 56, ptr %15) #7
  call void @llvm.lifetime.end.p0(i64 8, ptr %14) #7
  call void @llvm.lifetime.end.p0(i64 8, ptr %13) #7
  call void @llvm.lifetime.end.p0(i64 8, ptr %12) #7
  %56 = load i64, ptr %6, align 8
  ret i64 %56
}