; Function Attrs: nounwind uwtable
define internal fastcc i64 @RelativeDate(i64 noundef %0, i64 noundef %1, i32 noundef %2, i64 noundef %3, i64 noundef %4) unnamed_addr #0 {
  %6 = alloca i64, align 8
  %7 = alloca i64, align 8
  %8 = alloca %struct.tm, align 8
  %9 = alloca i64, align 8
  %10 = alloca %struct.tm, align 8
  call void @llvm.lifetime.start.p0(i64 8, ptr nonnull %9) #7
  call void @llvm.lifetime.start.p0(i64 56, ptr nonnull %10) #7
  %11 = sub nsw i64 %0, %1
  store i64 %11, ptr %9, align 8, !tbaa !4
  %12 = call ptr @gmtime_r(ptr noundef nonnull %9, ptr noundef nonnull %10) #7
  %13 = getelementptr inbounds nuw i8, ptr %12, i64 24
  %14 = load i32, ptr %13, align 8, !tbaa !53
  %15 = sext i32 %14 to i64
  %16 = add i64 %4, 7
  %17 = sub i64 %16, %15
  %18 = srem i64 %17, 7
  %19 = mul nsw i64 %18, 86400
  %20 = icmp sgt i64 %3, 0
  %21 = sext i1 %20 to i64
  %22 = add nsw i64 %3, %21
  %23 = mul nsw i64 %22, 604800
  %24 = add i64 %23, %0
  %25 = add i64 %24, %19
  %26 = icmp eq i32 %2, 2
  br i1 %26, label %27, label %43

27:                                               ; preds = %5
  call void @llvm.lifetime.start.p0(i64 8, ptr nonnull %6)
  call void @llvm.lifetime.start.p0(i64 8, ptr nonnull %7)
  store i64 %0, ptr %6, align 8, !tbaa !4
  store i64 %25, ptr %7, align 8, !tbaa !4
  call void @llvm.lifetime.start.p0(i64 56, ptr nonnull %8) #7
  %28 = call ptr @localtime_r(ptr noundef nonnull %6, ptr noundef nonnull %8) #7
  %29 = getelementptr inbounds nuw i8, ptr %28, i64 8
  %30 = load i32, ptr %29, align 8, !tbaa !14
  %31 = add nsw i32 %30, 1
  %32 = srem i32 %31, 24
  %33 = call ptr @localtime_r(ptr noundef nonnull %7, ptr noundef nonnull %8) #7
  %34 = getelementptr inbounds nuw i8, ptr %33, i64 8
  %35 = load i32, ptr %34, align 8, !tbaa !14
  %36 = add nsw i32 %35, 1
  %37 = srem i32 %36, 24
  %38 = load i64, ptr %7, align 8, !tbaa !4
  %39 = load i64, ptr %6, align 8, !tbaa !4
  %40 = sub i64 %38, %39
  %narrow.i = sub nsw i32 %32, %37
  %narrow3.i = mul nsw i32 %narrow.i, 3600
  %41 = sext i32 %narrow3.i to i64
  %42 = add nsw i64 %40, %41
  call void @llvm.lifetime.end.p0(i64 56, ptr nonnull %8) #7
  call void @llvm.lifetime.end.p0(i64 8, ptr nonnull %6)
  call void @llvm.lifetime.end.p0(i64 8, ptr nonnull %7)
  br label %45

43:                                               ; preds = %5
  %44 = sub nsw i64 %25, %0
  br label %45

45:                                               ; preds = %43, %27
  %.0 = phi i64 [ %42, %27 ], [ %44, %43 ]
  call void @llvm.lifetime.end.p0(i64 56, ptr nonnull %10) #7
  call void @llvm.lifetime.end.p0(i64 8, ptr nonnull %9) #7
  ret i64 %.0
}